; Function Attrs: nounwind uwtable
define ptr @l_Lean_Meta_Grind_mkDiseqProof_x3f___lambda__4___boxed(ptr noundef %0, ptr noundef %1, ptr noundef %2, ptr noundef %3, ptr noundef %4, ptr noundef %5, ptr noundef %6, ptr noundef %7, ptr noundef %8, ptr noundef %9) #0 {
  %11 = load ptr, ptr @l_Lean_Meta_Grind_mkDiseqProof_x3f___lambda__4___closed__4, align 8, !tbaa !4
  %12 = load ptr, ptr @l_panic___at_Lean_Meta_Grind_mkDiseqProof_x3f___spec__1___closed__5, align 8, !tbaa !4
  %13 = tail call ptr @lean_panic_fn(ptr noundef %12, ptr noundef %11) #4
  %14 = tail call ptr @lean_apply_9(ptr noundef %13, ptr noundef %1, ptr noundef %2, ptr noundef %3, ptr noundef %4, ptr noundef %5, ptr noundef %6, ptr noundef %7, ptr noundef %8, ptr noundef %9) #4
  %15 = ptrtoint ptr %0 to i64
  %16 = and i64 %15, 1
  %.not = icmp eq i64 %16, 0
  br i1 %.not, label %17, label %lean_dec.exit

17:                                               ; preds = %10
  %18 = load i32, ptr %0, align 4, !tbaa !8
  %19 = icmp sgt i32 %18, 1
  br i1 %19, label %20, label %22, !prof !11

20:                                               ; preds = %17
  %21 = add nsw i32 %18, -1
  store i32 %21, ptr %0, align 4, !tbaa !8
  br label %lean_dec.exit

22:                                               ; preds = %17
  %.not.i = icmp eq i32 %18, 0
  br i1 %.not.i, label %lean_dec.exit, label %23

23:                                               ; preds = %22
  tail call void @lean_dec_ref_cold(ptr noundef nonnull %0) #4
  br label %lean_dec.exit

lean_dec.exit:                                    ; preds = %23, %22, %20, %10
  ret ptr %14
}